target datalayout = "e-m:e-p270:32:32-p271:32:32-p272:64:64-i64:64-i128:128-f80:128-n8:16:32:64-S128"
target triple = "x86_64-pc-linux-gnu"

%"class.std::__cxx11::basic_string" = type { %"struct.std::__cxx11::basic_string<char>::_Alloc_hider", i64, %union.anon }
%"struct.std::__cxx11::basic_string<char>::_Alloc_hider" = type { ptr }
%union.anon = type { i64, [8 x i8] }
%"struct.std::_Rb_tree_key_compare" = type { %"struct.std::less" }
%"struct.std::less" = type { i8 }
%"struct.std::_Rb_tree_header" = type { %"struct.std::_Rb_tree_node_base", i64 }
%"struct.std::_Rb_tree_node_base" = type { i32, ptr, ptr, ptr }
%"class.std::optional.286" = type { %"struct.std::_Optional_base.287" }
%"struct.std::_Optional_base.287" = type { %"struct.std::_Optional_payload.289" }
%"struct.std::_Optional_payload.289" = type { %"struct.std::_Optional_payload.base.293", [7 x i8] }
%"struct.std::_Optional_payload.base.293" = type { %"struct.std::_Optional_payload_base.base.292" }
%"struct.std::_Optional_payload_base.base.292" = type <{ %"union.std::_Optional_payload_base<nix::StorePath>::_Storage", i8 }>
%"union.std::_Optional_payload_base<nix::StorePath>::_Storage" = type { %"class.nix::StorePath" }
%"class.nix::StorePath" = type { %"class.std::__cxx11::basic_string" }
%"class.std::map.300" = type { %"class.std::_Rb_tree.301" }
%"class.std::_Rb_tree.301" = type { %"struct.std::_Rb_tree<std::__cxx11::basic_string<char>, std::pair<const std::__cxx11::basic_string<char>, std::optional<nix::StorePath>>, std::_Select1st<std::pair<const std::__cxx11::basic_string<char>, std::optional<nix::StorePath>>>, std::less<std::__cxx11::basic_string<char>>>::_Rb_tree_impl" }
%"struct.std::_Rb_tree<std::__cxx11::basic_string<char>, std::pair<const std::__cxx11::basic_string<char>, std::optional<nix::StorePath>>, std::_Select1st<std::pair<const std::__cxx11::basic_string<char>, std::optional<nix::StorePath>>>, std::less<std::__cxx11::basic_string<char>>>::_Rb_tree_impl" = type { %"struct.std::_Rb_tree_key_compare", %"struct.std::_Rb_tree_header" }
%"struct.nix::PackageInfo" = type { ptr, %"class.std::__cxx11::basic_string", %"class.std::__cxx11::basic_string", %"class.std::optional.280", %"class.std::optional.286", %"class.std::__cxx11::basic_string", %"class.std::map.300", i8, ptr, ptr, %"class.std::__cxx11::basic_string" }
%"class.std::optional.280" = type { %"struct.std::_Optional_base.281" }
%"struct.std::_Optional_base.281" = type { %"struct.std::_Optional_payload.283" }
%"struct.std::_Optional_payload.283" = type { %"struct.std::_Optional_payload.base.297", [7 x i8] }
%"struct.std::_Optional_payload.base.297" = type { %"struct.std::_Optional_payload_base.base.296" }
%"struct.std::_Optional_payload_base.base.296" = type { %"union.std::_Optional_payload_base<std::optional<nix::StorePath>>::_Storage", i8 }
%"union.std::_Optional_payload_base<std::optional<nix::StorePath>>::_Storage" = type { %"class.std::optional.286" }
%"struct.std::_Vector_base.353" = type { %"struct.std::_Vector_base<(anonymous namespace)::Match, std::allocator<(anonymous namespace)::Match>>::_Vector_impl" }
%"struct.std::_Vector_base<(anonymous namespace)::Match, std::allocator<(anonymous namespace)::Match>>::_Vector_impl" = type { %"struct.std::_Vector_base<(anonymous namespace)::Match, std::allocator<(anonymous namespace)::Match>>::_Vector_impl_data" }
%"struct.std::_Vector_base<(anonymous namespace)::Match, std::allocator<(anonymous namespace)::Match>>::_Vector_impl_data" = type { ptr, ptr, ptr }
%"struct.(anonymous namespace)::Match" = type { %"struct.nix::PackageInfo", i64 }

; Function Attrs: mustprogress nounwind uwtable
define internal void @_ZN12_GLOBAL__N_15MatchD2Ev(ptr noundef nonnull align 8 dereferenceable(304) %0) unnamed_addr #2 align 2 {
  %2 = alloca ptr, align 8
  store ptr %0, ptr %2, align 8
  %3 = load ptr, ptr %2, align 8
  %4 = getelementptr inbounds %"struct.(anonymous namespace)::Match", ptr %3, i32 0, i32 0
  call void @_ZN3nix11PackageInfoD2Ev(ptr noundef nonnull align 8 dereferenceable(296) %4) #1
  ret void
}

; Function Attrs: mustprogress nounwind uwtable
define internal void @_ZSt10destroy_atIN12_GLOBAL__N_15MatchEEvPT_(ptr noundef %0) #2 {
  %2 = alloca ptr, align 8
  store ptr %0, ptr %2, align 8
  %3 = load ptr, ptr %2, align 8
  call void @_ZN12_GLOBAL__N_15MatchD2Ev(ptr noundef nonnull align 8 dereferenceable(304) %3) #1
  ret void
}

; Function Attrs: mustprogress nounwind uwtable
define internal void @_ZNSt15__new_allocatorIN12_GLOBAL__N_15MatchEE10deallocateEPS1_m(ptr noundef nonnull align 1 dereferenceable(1) %0, ptr noundef %1, i64 noundef %2) #2 align 2 {
  %4 = alloca ptr, align 8
  %5 = alloca ptr, align 8
  %6 = alloca i64, align 8
  store ptr %0, ptr %4, align 8
  store ptr %1, ptr %5, align 8
  store i64 %2, ptr %6, align 8
  %7 = load ptr, ptr %5, align 8
  call void @_ZdlPv(ptr noundef %7) #26
  ret void
}

; Function Attrs: mustprogress nounwind uwtable
define internal void @_ZSt8_DestroyIN12_GLOBAL__N_15MatchEEvPT_(ptr noundef %0) #2 {
  %2 = alloca ptr, align 8
  store ptr %0, ptr %2, align 8
  %3 = load ptr, ptr %2, align 8
  call void @_ZSt10destroy_atIN12_GLOBAL__N_15MatchEEvPT_(ptr noundef %3)
  ret void
}

; Function Attrs: mustprogress nounwind uwtable
define internal void @_ZNSaIN12_GLOBAL__N_15MatchEED2Ev(ptr noundef nonnull align 1 dereferenceable(1) %0) unnamed_addr #2 align 2 {
  %2 = alloca ptr, align 8
  store ptr %0, ptr %2, align 8
  ret void
}

; Function Attrs: mustprogress uwtable
define internal void @_ZNSt16allocator_traitsISaIN12_GLOBAL__N_15MatchEEE10deallocateERS2_PS1_m(ptr noundef nonnull align 1 dereferenceable(1) %0, ptr noundef %1, i64 noundef %2) #5 align 2 {
  %4 = alloca ptr, align 8
  %5 = alloca ptr, align 8
  %6 = alloca i64, align 8
  %7 = alloca ptr, align 8
  %8 = alloca ptr, align 8
  %9 = alloca i64, align 8
  store ptr %0, ptr %7, align 8
  store ptr %1, ptr %8, align 8
  store i64 %2, ptr %9, align 8
  %10 = load ptr, ptr %7, align 8
  %11 = load ptr, ptr %8, align 8
  %12 = load i64, ptr %9, align 8
  store ptr %10, ptr %4, align 8
  store ptr %11, ptr %5, align 8
  store i64 %12, ptr %6, align 8
  %13 = load ptr, ptr %4, align 8
  %14 = load ptr, ptr %5, align 8
  %15 = load i64, ptr %6, align 8
  call void @_ZNSt15__new_allocatorIN12_GLOBAL__N_15MatchEE10deallocateEPS1_m(ptr noundef nonnull align 1 dereferenceable(1) %13, ptr noundef %14, i64 noundef %15)
  ret void
}

; Function Attrs: mustprogress uwtable
define internal void @_ZNSt12_Destroy_auxILb0EE9__destroyIPN12_GLOBAL__N_15MatchEEEvT_S5_(ptr noundef %0, ptr noundef %1) #5 align 2 {
  %3 = alloca ptr, align 8
  %4 = alloca ptr, align 8
  store ptr %0, ptr %3, align 8
  store ptr %1, ptr %4, align 8
  br label %5

5:                                                ; preds = %11, %2
  %6 = load ptr, ptr %3, align 8
  %7 = load ptr, ptr %4, align 8
  %8 = icmp ne ptr %6, %7
  br i1 %8, label %9, label %14

9:                                                ; preds = %5
  %10 = load ptr, ptr %3, align 8
  call void @_ZSt8_DestroyIN12_GLOBAL__N_15MatchEEvPT_(ptr noundef %10)
  br label %11

11:                                               ; preds = %9
  %12 = load ptr, ptr %3, align 8
  %13 = getelementptr inbounds %"struct.(anonymous namespace)::Match", ptr %12, i32 1
  store ptr %13, ptr %3, align 8
  br label %5, !llvm.loop !48

14:                                               ; preds = %5
  ret void
}

; Function Attrs: mustprogress nounwind uwtable
define internal void @_ZNSt12_Vector_baseIN12_GLOBAL__N_15MatchESaIS1_EE12_Vector_implD2Ev(ptr noundef nonnull align 8 dereferenceable(24) %0) unnamed_addr #2 align 2 {
  %2 = alloca ptr, align 8
  store ptr %0, ptr %2, align 8
  %3 = load ptr, ptr %2, align 8
  call void @_ZNSaIN12_GLOBAL__N_15MatchEED2Ev(ptr noundef nonnull align 1 dereferenceable(1) %3) #1
  ret void
}

; Function Attrs: mustprogress uwtable
define internal void @_ZNSt12_Vector_baseIN12_GLOBAL__N_15MatchESaIS1_EE13_M_deallocateEPS1_m(ptr noundef nonnull align 8 dereferenceable(24) %0, ptr noundef %1, i64 noundef %2) #5 align 2 {
  %4 = alloca ptr, align 8
  %5 = alloca ptr, align 8
  %6 = alloca i64, align 8
  store ptr %0, ptr %4, align 8
  store ptr %1, ptr %5, align 8
  store i64 %2, ptr %6, align 8
  %7 = load ptr, ptr %4, align 8
  %8 = load ptr, ptr %5, align 8
  %9 = icmp ne ptr %8, null
  br i1 %9, label %10, label %14

10:                                               ; preds = %3
  %11 = getelementptr inbounds %"struct.std::_Vector_base.353", ptr %7, i32 0, i32 0
  %12 = load ptr, ptr %5, align 8
  %13 = load i64, ptr %6, align 8
  call void @_ZNSt16allocator_traitsISaIN12_GLOBAL__N_15MatchEEE10deallocateERS2_PS1_m(ptr noundef nonnull align 1 dereferenceable(1) %11, ptr noundef %12, i64 noundef %13)
  br label %14

14:                                               ; preds = %10, %3
  ret void
}

; Function Attrs: mustprogress uwtable
define internal void @_ZSt8_DestroyIPN12_GLOBAL__N_15MatchEEvT_S3_(ptr noundef %0, ptr noundef %1) #5 {
  %3 = alloca ptr, align 8
  %4 = alloca ptr, align 8
  store ptr %0, ptr %3, align 8
  store ptr %1, ptr %4, align 8
  %5 = load ptr, ptr %3, align 8
  %6 = load ptr, ptr %4, align 8
  call void @_ZNSt12_Destroy_auxILb0EE9__destroyIPN12_GLOBAL__N_15MatchEEEvT_S5_(ptr noundef %5, ptr noundef %6)
  ret void
}

; Function Attrs: noreturn nounwind uwtable
define linkonce_odr hidden void @__clang_call_terminate(ptr noundef %0) #8 comdat {
  %2 = call ptr @__cxa_begin_catch(ptr %0) #1
  call void @_ZSt9terminatev() #24
  unreachable
}

; Function Attrs: mustprogress nounwind uwtable
define internal void @_ZNSt12_Vector_baseIN12_GLOBAL__N_15MatchESaIS1_EED2Ev(ptr noundef nonnull align 8 dereferenceable(24) %0) unnamed_addr #2 align 2 personality ptr @__gxx_personality_v0 {
  %2 = alloca ptr, align 8
  store ptr %0, ptr %2, align 8
  %3 = load ptr, ptr %2, align 8
  %4 = getelementptr inbounds %"struct.std::_Vector_base.353", ptr %3, i32 0, i32 0
  %5 = getelementptr inbounds %"struct.std::_Vector_base<(anonymous namespace)::Match, std::allocator<(anonymous namespace)::Match>>::_Vector_impl_data", ptr %4, i32 0, i32 0
  %6 = load ptr, ptr %5, align 8
  %7 = getelementptr inbounds %"struct.std::_Vector_base.353", ptr %3, i32 0, i32 0
  %8 = getelementptr inbounds %"struct.std::_Vector_base<(anonymous namespace)::Match, std::allocator<(anonymous namespace)::Match>>::_Vector_impl_data", ptr %7, i32 0, i32 2
  %9 = load ptr, ptr %8, align 8
  %10 = getelementptr inbounds %"struct.std::_Vector_base.353", ptr %3, i32 0, i32 0
  %11 = getelementptr inbounds %"struct.std::_Vector_base<(anonymous namespace)::Match, std::allocator<(anonymous namespace)::Match>>::_Vector_impl_data", ptr %10, i32 0, i32 0
  %12 = load ptr, ptr %11, align 8
  %13 = ptrtoint ptr %9 to i64
  %14 = ptrtoint ptr %12 to i64
  %15 = sub i64 %13, %14
  %16 = sdiv exact i64 %15, 304
  invoke void @_ZNSt12_Vector_baseIN12_GLOBAL__N_15MatchESaIS1_EE13_M_deallocateEPS1_m(ptr noundef nonnull align 8 dereferenceable(24) %3, ptr noundef %6, i64 noundef %16)
          to label %17 unwind label %19

17:                                               ; preds = %1
  %18 = getelementptr inbounds %"struct.std::_Vector_base.353", ptr %3, i32 0, i32 0
  call void @_ZNSt12_Vector_baseIN12_GLOBAL__N_15MatchESaIS1_EE12_Vector_implD2Ev(ptr noundef nonnull align 8 dereferenceable(24) %18) #1
  ret void

19:                                               ; preds = %1
  %20 = landingpad { ptr, i32 }
          catch ptr null
  %21 = extractvalue { ptr, i32 } %20, 0
  call void @__clang_call_terminate(ptr %21) #24
  unreachable
}

; Function Attrs: mustprogress uwtable
define internal void @_ZSt8_DestroyIPN12_GLOBAL__N_15MatchES1_EvT_S3_RSaIT0_E(ptr noundef %0, ptr noundef %1, ptr noundef nonnull align 1 dereferenceable(1) %2) #5 {
  %4 = alloca ptr, align 8
  %5 = alloca ptr, align 8
  %6 = alloca ptr, align 8
  store ptr %0, ptr %4, align 8
  store ptr %1, ptr %5, align 8
  store ptr %2, ptr %6, align 8
  %7 = load ptr, ptr %4, align 8
  %8 = load ptr, ptr %5, align 8
  call void @_ZSt8_DestroyIPN12_GLOBAL__N_15MatchEEvT_S3_(ptr noundef %7, ptr noundef %8)
  ret void
}

; Function Attrs: mustprogress nounwind uwtable
define internal noundef nonnull align 1 dereferenceable(1) ptr @_ZNSt12_Vector_baseIN12_GLOBAL__N_15MatchESaIS1_EE19_M_get_Tp_allocatorEv(ptr noundef nonnull align 8 dereferenceable(24) %0) #2 align 2 {
  %2 = alloca ptr, align 8
  store ptr %0, ptr %2, align 8
  %3 = load ptr, ptr %2, align 8
  %4 = getelementptr inbounds %"struct.std::_Vector_base.353", ptr %3, i32 0, i32 0
  ret ptr %4
}

; Function Attrs: mustprogress nounwind uwtable
define internal void @_ZNSt6vectorIN12_GLOBAL__N_15MatchESaIS1_EED2Ev(ptr noundef nonnull align 8 dereferenceable(24) %0) unnamed_addr #2 align 2 personality ptr @__gxx_personality_v0 {
  %2 = alloca ptr, align 8
  store ptr %0, ptr %2, align 8
  %3 = load ptr, ptr %2, align 8
  %4 = getelementptr inbounds %"struct.std::_Vector_base.353", ptr %3, i32 0, i32 0
  %5 = getelementptr inbounds %"struct.std::_Vector_base<(anonymous namespace)::Match, std::allocator<(anonymous namespace)::Match>>::_Vector_impl_data", ptr %4, i32 0, i32 0
  %6 = load ptr, ptr %5, align 8
  %7 = getelementptr inbounds %"struct.std::_Vector_base.353", ptr %3, i32 0, i32 0
  %8 = getelementptr inbounds %"struct.std::_Vector_base<(anonymous namespace)::Match, std::allocator<(anonymous namespace)::Match>>::_Vector_impl_data", ptr %7, i32 0, i32 1
  %9 = load ptr, ptr %8, align 8
  %10 = call noundef nonnull align 1 dereferenceable(1) ptr @_ZNSt12_Vector_baseIN12_GLOBAL__N_15MatchESaIS1_EE19_M_get_Tp_allocatorEv(ptr noundef nonnull align 8 dereferenceable(24) %3) #1
  invoke void @_ZSt8_DestroyIPN12_GLOBAL__N_15MatchES1_EvT_S3_RSaIT0_E(ptr noundef %6, ptr noundef %9, ptr noundef nonnull align 1 dereferenceable(1) %10)
          to label %11 unwind label %12

11:                                               ; preds = %1
  call void @_ZNSt12_Vector_baseIN12_GLOBAL__N_15MatchESaIS1_EED2Ev(ptr noundef nonnull align 8 dereferenceable(24) %3) #1
  ret void

12:                                               ; preds = %1
  %13 = landingpad { ptr, i32 }
          catch ptr null
  %14 = extractvalue { ptr, i32 } %13, 0
  call void @__clang_call_terminate(ptr %14) #24
  unreachable
}